target datalayout = "e-m:e-p270:32:32-p271:32:32-p272:64:64-i64:64-i128:128-f80:128-n8:16:32:64-S128"
target triple = "x86_64-pc-linux-gnu"

%"class.Imf_3_4::TypedAttribute" = type { %"class.Imf_3_4::Attribute", %"class.Imf_3_4::TimeCode" }
%"class.Imf_3_4::Attribute" = type { ptr }
%"class.Imf_3_4::TimeCode" = type { i32, i32 }

; Function Attrs: inlinehint mustprogress uwtable
define linkonce_odr hidden noundef zeroext i1 @_ZN7Imf_3_48StreamIO9readCharsERNS_7IStreamEPci(ptr noundef nonnull align 8 dereferenceable(40) %0, ptr noundef %1, i32 noundef %2) #11 comdat align 2 {
  %4 = alloca ptr, align 8
  %5 = alloca ptr, align 8
  %6 = alloca i32, align 4
  store ptr %0, ptr %4, align 8, !tbaa !19
  store ptr %1, ptr %5, align 8, !tbaa !23
  store i32 %2, ptr %6, align 4, !tbaa !16
  %7 = load ptr, ptr %4, align 8, !tbaa !19
  %8 = load ptr, ptr %5, align 8, !tbaa !23
  %9 = load i32, ptr %6, align 4, !tbaa !16
  %10 = load ptr, ptr %7, align 8, !tbaa !10
  %11 = getelementptr inbounds ptr, ptr %10, i64 3
  %12 = load ptr, ptr %11, align 8
  %13 = call noundef zeroext i1 %12(ptr noundef nonnull align 8 dereferenceable(40) %7, ptr noundef %8, i32 noundef %9)
  ret i1 %13
}

; Function Attrs: inlinehint mustprogress uwtable
define linkonce_odr hidden void @_ZN7Imf_3_43Xdr17readUnsignedCharsINS_8StreamIOENS_7IStreamEEEvRT0_Phi(ptr noundef nonnull align 8 dereferenceable(40) %0, ptr noundef %1, i32 noundef %2) #11 comdat {
  %4 = alloca ptr, align 8
  %5 = alloca ptr, align 8
  %6 = alloca i32, align 4
  store ptr %0, ptr %4, align 8, !tbaa !19
  store ptr %1, ptr %5, align 8, !tbaa !23
  store i32 %2, ptr %6, align 4, !tbaa !16
  %7 = load ptr, ptr %4, align 8, !tbaa !19
  %8 = load ptr, ptr %5, align 8, !tbaa !23
  %9 = load i32, ptr %6, align 4, !tbaa !16
  %10 = call noundef zeroext i1 @_ZN7Imf_3_48StreamIO9readCharsERNS_7IStreamEPci(ptr noundef nonnull align 8 dereferenceable(40) %7, ptr noundef %8, i32 noundef %9)
  ret void
}

; Function Attrs: mustprogress uwtable
define linkonce_odr hidden void @_ZN7Imf_3_43Xdr4readINS_8StreamIOENS_7IStreamEEEvRT0_Rj(ptr noundef nonnull align 8 dereferenceable(40) %0, ptr noundef nonnull align 4 dereferenceable(4) %1) #4 comdat {
  %3 = alloca ptr, align 8
  %4 = alloca ptr, align 8
  %5 = alloca [4 x i8], align 1
  store ptr %0, ptr %3, align 8, !tbaa !19
  store ptr %1, ptr %4, align 8, !tbaa !21
  call void @llvm.lifetime.start.p0(i64 4, ptr %5) #3
  %6 = load ptr, ptr %3, align 8, !tbaa !19
  %7 = getelementptr inbounds [4 x i8], ptr %5, i64 0, i64 0
  call void @_ZN7Imf_3_43Xdr17readUnsignedCharsINS_8StreamIOENS_7IStreamEEEvRT0_Phi(ptr noundef nonnull align 8 dereferenceable(40) %6, ptr noundef %7, i32 noundef 4)
  %8 = getelementptr inbounds [4 x i8], ptr %5, i64 0, i64 0
  %9 = load i8, ptr %8, align 1, !tbaa !18
  %10 = zext i8 %9 to i32
  %11 = and i32 %10, 255
  %12 = getelementptr inbounds [4 x i8], ptr %5, i64 0, i64 1
  %13 = load i8, ptr %12, align 1, !tbaa !18
  %14 = zext i8 %13 to i32
  %15 = shl i32 %14, 8
  %16 = and i32 %15, 65280
  %17 = or i32 %11, %16
  %18 = getelementptr inbounds [4 x i8], ptr %5, i64 0, i64 2
  %19 = load i8, ptr %18, align 1, !tbaa !18
  %20 = zext i8 %19 to i32
  %21 = shl i32 %20, 16
  %22 = and i32 %21, 16711680
  %23 = or i32 %17, %22
  %24 = getelementptr inbounds [4 x i8], ptr %5, i64 0, i64 3
  %25 = load i8, ptr %24, align 1, !tbaa !18
  %26 = zext i8 %25 to i32
  %27 = shl i32 %26, 24
  %28 = or i32 %23, %27
  %29 = load ptr, ptr %4, align 8, !tbaa !21
  store i32 %28, ptr %29, align 4, !tbaa !16
  call void @llvm.lifetime.end.p0(i64 4, ptr %5) #3
  ret void
}

; Function Attrs: mustprogress uwtable
define void @_ZN7Imf_3_414TypedAttributeINS_8TimeCodeEE13readValueFromERNS_7IStreamEii(ptr noundef nonnull align 8 dereferenceable(16) %0, ptr noundef nonnull align 8 dereferenceable(40) %1, i32 noundef %2, i32 noundef %3) unnamed_addr #4 align 2 {
  %5 = alloca ptr, align 8
  %6 = alloca ptr, align 8
  %7 = alloca i32, align 4
  %8 = alloca i32, align 4
  %9 = alloca i32, align 4
  store ptr %0, ptr %5, align 8, !tbaa !3
  store ptr %1, ptr %6, align 8, !tbaa !19
  store i32 %2, ptr %7, align 4, !tbaa !16
  store i32 %3, ptr %8, align 4, !tbaa !16
  %10 = load ptr, ptr %5, align 8
  call void @llvm.lifetime.start.p0(i64 4, ptr %9) #3
  %11 = load ptr, ptr %6, align 8, !tbaa !19
  call void @_ZN7Imf_3_43Xdr4readINS_8StreamIOENS_7IStreamEEEvRT0_Rj(ptr noundef nonnull align 8 dereferenceable(40) %11, ptr noundef nonnull align 4 dereferenceable(4) %9)
  %12 = getelementptr inbounds nuw %"class.Imf_3_4::TypedAttribute", ptr %10, i32 0, i32 1
  %13 = load i32, ptr %9, align 4, !tbaa !16
  call void @_ZN7Imf_3_48TimeCode15setTimeAndFlagsEjNS0_7PackingE(ptr noundef nonnull align 4 dereferenceable(8) %12, i32 noundef %13, i32 noundef 0)
  %14 = load ptr, ptr %6, align 8, !tbaa !19
  call void @_ZN7Imf_3_43Xdr4readINS_8StreamIOENS_7IStreamEEEvRT0_Rj(ptr noundef nonnull align 8 dereferenceable(40) %14, ptr noundef nonnull align 4 dereferenceable(4) %9)
  %15 = getelementptr inbounds nuw %"class.Imf_3_4::TypedAttribute", ptr %10, i32 0, i32 1
  %16 = load i32, ptr %9, align 4, !tbaa !16
  call void @_ZN7Imf_3_48TimeCode11setUserDataEj(ptr noundef nonnull align 4 dereferenceable(8) %15, i32 noundef %16)
  call void @llvm.lifetime.end.p0(i64 4, ptr %9) #3
  ret void
}