; Function Attrs: mustprogress uwtable
define void @_ZN7Imf_3_414TypedAttributeINS_8TimeCodeEE13readValueFromERNS_7IStreamEii(ptr noundef nonnull align 8 dereferenceable(16) %0, ptr noundef nonnull align 8 dereferenceable(40) %1, i32 %2, i32 %3) unnamed_addr #3 align 2 {
  %5 = alloca [4 x i8], align 4
  %6 = alloca [4 x i8], align 4
  call void @llvm.lifetime.start.p0(i64 4, ptr nonnull %6) #15
  %7 = load ptr, ptr %1, align 8, !tbaa !3
  %8 = getelementptr inbounds nuw i8, ptr %7, i64 24
  %9 = load ptr, ptr %8, align 8
  %10 = call noundef zeroext i1 %9(ptr noundef nonnull align 8 dereferenceable(40) %1, ptr noundef nonnull %6, i32 noundef 4)
  %11 = load i32, ptr %6, align 4
  call void @llvm.lifetime.end.p0(i64 4, ptr nonnull %6) #15
  %12 = getelementptr inbounds nuw i8, ptr %0, i64 8
  call void @_ZN7Imf_3_48TimeCode15setTimeAndFlagsEjNS0_7PackingE(ptr noundef nonnull align 4 dereferenceable(8) %12, i32 noundef %11, i32 noundef 0)
  call void @llvm.lifetime.start.p0(i64 4, ptr nonnull %5) #15
  %13 = load ptr, ptr %1, align 8, !tbaa !3
  %14 = getelementptr inbounds nuw i8, ptr %13, i64 24
  %15 = load ptr, ptr %14, align 8
  %16 = call noundef zeroext i1 %15(ptr noundef nonnull align 8 dereferenceable(40) %1, ptr noundef nonnull %5, i32 noundef 4)
  %17 = load i32, ptr %5, align 4
  call void @llvm.lifetime.end.p0(i64 4, ptr nonnull %5) #15
  call void @_ZN7Imf_3_48TimeCode11setUserDataEj(ptr noundef nonnull align 4 dereferenceable(8) %12, i32 noundef %17)
  ret void
}